target datalayout = "e-m:e-p270:32:32-p271:32:32-p272:64:64-i64:64-i128:128-f80:128-n8:16:32:64-S128"
target triple = "x86_64-pc-linux-gnu"

%struct.TuplesortPublic = type { ptr, ptr, ptr, ptr, ptr, ptr, ptr, ptr, ptr, i8, i32, ptr, ptr, i32, i8, ptr }
%struct.SortTuple = type { ptr, i64, i8, i32 }
%struct.RelationData = type { %struct.RelFileLocator, ptr, i32, i32, i8, i8, i8, i8, i8, i32, i32, i32, i32, ptr, ptr, i32, %struct.LockInfoData, ptr, ptr, ptr, ptr, ptr, i8, ptr, ptr, ptr, ptr, ptr, ptr, i32, ptr, i8, ptr, ptr, i32, i8, i32, ptr, i8, ptr, ptr, ptr, ptr, ptr, ptr, ptr, i32, ptr, ptr, ptr, ptr, ptr, ptr, ptr, ptr, ptr, ptr, ptr, ptr, ptr, ptr, ptr, ptr, ptr, ptr, ptr, i32, i8, ptr }
%struct.RelFileLocator = type { i32, i32, i32 }
%struct.LockInfoData = type { %struct.LockRelId }
%struct.LockRelId = type { i32, i32 }
%struct.TuplesortIndexArg = type { ptr, ptr }

@.str.1 = private unnamed_addr constant [20 x i8] c"tuplesortvariants.c\00", align 1
@.str.8 = private unnamed_addr constant [23 x i8] c"unexpected end of data\00", align 1
@__func__.readtup_index = private unnamed_addr constant [14 x i8] c"readtup_index\00", align 1

; Function Attrs: nounwind uwtable
define internal void @readtup_index(ptr noundef %0, ptr noundef %1, ptr noundef %2, i32 noundef %3) #0 {
  %5 = alloca ptr, align 8
  %6 = alloca ptr, align 8
  %7 = alloca ptr, align 8
  %8 = alloca i32, align 4
  %9 = alloca ptr, align 8
  %10 = alloca ptr, align 8
  %11 = alloca i32, align 4
  %12 = alloca ptr, align 8
  store ptr %0, ptr %5, align 8
  store ptr %1, ptr %6, align 8
  store ptr %2, ptr %7, align 8
  store i32 %3, ptr %8, align 4
  call void @llvm.lifetime.start.p0(i64 8, ptr %9) #6
  %13 = load ptr, ptr %5, align 8
  store ptr %13, ptr %9, align 8
  call void @llvm.lifetime.start.p0(i64 8, ptr %10) #6
  %14 = load ptr, ptr %9, align 8
  %15 = getelementptr inbounds nuw %struct.TuplesortPublic, ptr %14, i32 0, i32 15
  %16 = load ptr, ptr %15, align 8
  store ptr %16, ptr %10, align 8
  call void @llvm.lifetime.start.p0(i64 4, ptr %11) #6
  %17 = load i32, ptr %8, align 4
  %18 = zext i32 %17 to i64
  %19 = sub i64 %18, 4
  %20 = trunc i64 %19 to i32
  store i32 %20, ptr %11, align 4
  call void @llvm.lifetime.start.p0(i64 8, ptr %12) #6
  %21 = load ptr, ptr %5, align 8
  %22 = load i32, ptr %11, align 4
  %23 = zext i32 %22 to i64
  %24 = call ptr @tuplesort_readtup_alloc(ptr noundef %21, i64 noundef %23)
  store ptr %24, ptr %12, align 8
  br label %25

25:                                               ; preds = %4
  %26 = load ptr, ptr %7, align 8
  %27 = load ptr, ptr %12, align 8
  %28 = load i32, ptr %11, align 4
  %29 = zext i32 %28 to i64
  %30 = call i64 @LogicalTapeRead(ptr noundef %26, ptr noundef %27, i64 noundef %29)
  %31 = load i32, ptr %11, align 4
  %32 = zext i32 %31 to i64
  %33 = icmp ne i64 %30, %32
  br i1 %33, label %34, label %45

34:                                               ; preds = %25
  br label %35

35:                                               ; preds = %34
  br i1 true, label %36, label %38

36:                                               ; preds = %35
  %37 = call zeroext i1 @errstart_cold(i32 noundef 21, ptr noundef null) #7
  br i1 %37, label %40, label %42

38:                                               ; preds = %35
  %39 = call zeroext i1 @errstart(i32 noundef 21, ptr noundef null)
  br i1 %39, label %40, label %42

40:                                               ; preds = %38, %36
  %41 = call i32 (ptr, ...) @errmsg_internal(ptr noundef @.str.8)
  call void @errfinish(ptr noundef @.str.1, i32 noundef 1681, ptr noundef @__func__.readtup_index)
  br label %42

42:                                               ; preds = %40, %38, %36
  unreachable

43:                                               ; No predecessors!
  br label %44

44:                                               ; preds = %43
  br label %45

45:                                               ; preds = %44, %25
  br label %46

46:                                               ; preds = %45
  br label %47

47:                                               ; preds = %46
  %48 = load ptr, ptr %9, align 8
  %49 = getelementptr inbounds nuw %struct.TuplesortPublic, ptr %48, i32 0, i32 13
  %50 = load i32, ptr %49, align 8
  %51 = and i32 %50, 1
  %52 = icmp ne i32 %51, 0
  br i1 %52, label %53, label %72

53:                                               ; preds = %47
  br label %54

54:                                               ; preds = %53
  %55 = load ptr, ptr %7, align 8
  %56 = call i64 @LogicalTapeRead(ptr noundef %55, ptr noundef %11, i64 noundef 4)
  %57 = icmp ne i64 %56, 4
  br i1 %57, label %58, label %69

58:                                               ; preds = %54
  br label %59

59:                                               ; preds = %58
  br i1 true, label %60, label %62

60:                                               ; preds = %59
  %61 = call zeroext i1 @errstart_cold(i32 noundef 21, ptr noundef null) #7
  br i1 %61, label %64, label %66

62:                                               ; preds = %59
  %63 = call zeroext i1 @errstart(i32 noundef 21, ptr noundef null)
  br i1 %63, label %64, label %66

64:                                               ; preds = %62, %60
  %65 = call i32 (ptr, ...) @errmsg_internal(ptr noundef @.str.8)
  call void @errfinish(ptr noundef @.str.1, i32 noundef 1683, ptr noundef @__func__.readtup_index)
  br label %66

66:                                               ; preds = %64, %62, %60
  unreachable

67:                                               ; No predecessors!
  br label %68

68:                                               ; preds = %67
  br label %69

69:                                               ; preds = %68, %54
  br label %70

70:                                               ; preds = %69
  br label %71

71:                                               ; preds = %70
  br label %72

72:                                               ; preds = %71, %47
  %73 = load ptr, ptr %12, align 8
  %74 = load ptr, ptr %6, align 8
  %75 = getelementptr inbounds nuw %struct.SortTuple, ptr %74, i32 0, i32 0
  store ptr %73, ptr %75, align 8
  %76 = load ptr, ptr %12, align 8
  %77 = load ptr, ptr %10, align 8
  %78 = getelementptr inbounds nuw %struct.TuplesortIndexArg, ptr %77, i32 0, i32 1
  %79 = load ptr, ptr %78, align 8
  %80 = getelementptr inbounds nuw %struct.RelationData, ptr %79, i32 0, i32 14
  %81 = load ptr, ptr %80, align 8
  %82 = load ptr, ptr %6, align 8
  %83 = getelementptr inbounds nuw %struct.SortTuple, ptr %82, i32 0, i32 2
  %84 = call i64 @index_getattr(ptr noundef %76, i32 noundef 1, ptr noundef %81, ptr noundef %83)
  %85 = load ptr, ptr %6, align 8
  %86 = getelementptr inbounds nuw %struct.SortTuple, ptr %85, i32 0, i32 1
  store i64 %84, ptr %86, align 8
  call void @llvm.lifetime.end.p0(i64 8, ptr %12) #6
  call void @llvm.lifetime.end.p0(i64 4, ptr %11) #6
  call void @llvm.lifetime.end.p0(i64 8, ptr %10) #6
  call void @llvm.lifetime.end.p0(i64 8, ptr %9) #6
  ret void
}