; Function Attrs: nounwind uwtable
define internal void @readtup_index(ptr noundef %0, ptr noundef writeonly captures(none) %1, ptr noundef %2, i32 noundef %3) #0 {
  %5 = alloca i32, align 4
  %6 = getelementptr inbounds nuw i8, ptr %0, i64 104
  %7 = load ptr, ptr %6, align 8
  call void @llvm.lifetime.start.p0(i64 4, ptr nonnull %5) #12
  %8 = add i32 %3, -4
  store i32 %8, ptr %5, align 4
  %9 = zext i32 %8 to i64
  %10 = tail call ptr @tuplesort_readtup_alloc(ptr noundef %0, i64 noundef %9) #12
  %11 = tail call i64 @LogicalTapeRead(ptr noundef %2, ptr noundef %10, i64 noundef %9) #12
  %.not = icmp eq i64 %11, %9
  br i1 %.not, label %15, label %12

12:                                               ; preds = %4
  %13 = tail call zeroext i1 @errstart_cold(i32 noundef 21, ptr noundef null) #13
  tail call void @llvm.assume(i1 %13)
  %14 = tail call i32 (ptr, ...) @errmsg_internal(ptr noundef nonnull @.str.8) #12
  tail call void @errfinish(ptr noundef nonnull @.str.1, i32 noundef 1681, ptr noundef nonnull @__func__.readtup_index) #12
  unreachable

15:                                               ; preds = %4
  %16 = getelementptr inbounds nuw i8, ptr %0, i64 96
  %17 = load i32, ptr %16, align 8
  %18 = and i32 %17, 1
  %.not13 = icmp eq i32 %18, 0
  br i1 %.not13, label %24, label %19

19:                                               ; preds = %15
  %20 = call i64 @LogicalTapeRead(ptr noundef %2, ptr noundef nonnull %5, i64 noundef 4) #12
  %.not14 = icmp eq i64 %20, 4
  br i1 %.not14, label %24, label %21

21:                                               ; preds = %19
  %22 = call zeroext i1 @errstart_cold(i32 noundef 21, ptr noundef null) #13
  call void @llvm.assume(i1 %22)
  %23 = call i32 (ptr, ...) @errmsg_internal(ptr noundef nonnull @.str.8) #12
  call void @errfinish(ptr noundef nonnull @.str.1, i32 noundef 1683, ptr noundef nonnull @__func__.readtup_index) #12
  unreachable

24:                                               ; preds = %19, %15
  store ptr %10, ptr %1, align 8
  %25 = getelementptr inbounds nuw i8, ptr %7, i64 8
  %26 = load ptr, ptr %25, align 8
  %27 = getelementptr inbounds nuw i8, ptr %26, i64 64
  %28 = load ptr, ptr %27, align 8
  %29 = getelementptr inbounds nuw i8, ptr %1, i64 16
  %30 = call fastcc i64 @index_getattr(ptr noundef %10, i32 noundef 1, ptr noundef %28, ptr noundef nonnull %29)
  %31 = getelementptr inbounds nuw i8, ptr %1, i64 8
  store i64 %30, ptr %31, align 8
  call void @llvm.lifetime.end.p0(i64 4, ptr nonnull %5) #12
  ret void
}